target datalayout = "e-m:e-p270:32:32-p271:32:32-p272:64:64-i64:64-i128:128-f80:128-n8:16:32:64-S128"
target triple = "x86_64-pc-linux-gnu"

%struct.TopSizeBlk = type <{ ptr, ptr, i32, i32, i32, i32, i8, i8, i16, i16, [2 x i8] }>

@_ZL12TopSizeArray = internal global ptr null, align 8
@_ZL19alloc_topSizeBlocks = internal global i32 0, align 4
@_ZL18used_topSizeBlocks = internal global i32 0, align 4

; Function Attrs: mustprogress nounwind uwtable
define linkonce_odr hidden void @_ZN12CHeapObjBasedaEPv(ptr noundef %0) #1 comdat align 2 {
  %2 = alloca ptr, align 8
  store ptr %0, ptr %2, align 8
  %3 = load ptr, ptr %2, align 8
  call void @_Z8FreeHeapPv(ptr noundef %3)
  ret void
}

; Function Attrs: mustprogress nounwind uwtable
define linkonce_odr hidden void @_ZN8CHeapObjIL8MEMFLAGS4EEdaEPv(ptr noundef %0) #1 comdat align 2 {
  %2 = alloca ptr, align 8
  store ptr %0, ptr %2, align 8
  %3 = load ptr, ptr %2, align 8
  call void @_ZN12CHeapObjBasedaEPv(ptr noundef %3) #9
  ret void
}

; Function Attrs: mustprogress nounwind uwtable
define hidden void @_ZN13CodeHeapState20discard_TopSizeArrayEP12outputStream(ptr noundef %0) #1 align 2 {
  %2 = alloca ptr, align 8
  %3 = alloca i32, align 4
  store ptr %0, ptr %2, align 8
  %4 = load ptr, ptr @_ZL12TopSizeArray, align 8
  %5 = icmp ne ptr %4, null
  br i1 %5, label %6, label %35

6:                                                ; preds = %1
  store i32 0, ptr %3, align 4
  br label %7

7:                                                ; preds = %27, %6
  %8 = load i32, ptr %3, align 4
  %9 = load i32, ptr @_ZL19alloc_topSizeBlocks, align 4
  %10 = icmp ult i32 %8, %9
  br i1 %10, label %11, label %30

11:                                               ; preds = %7
  %12 = load ptr, ptr @_ZL12TopSizeArray, align 8
  %13 = load i32, ptr %3, align 4
  %14 = zext i32 %13 to i64
  %15 = getelementptr inbounds %struct.TopSizeBlk, ptr %12, i64 %14
  %16 = getelementptr inbounds %struct.TopSizeBlk, ptr %15, i32 0, i32 1
  %17 = load ptr, ptr %16, align 8
  %18 = icmp ne ptr %17, null
  br i1 %18, label %19, label %26

19:                                               ; preds = %11
  %20 = load ptr, ptr @_ZL12TopSizeArray, align 8
  %21 = load i32, ptr %3, align 4
  %22 = zext i32 %21 to i64
  %23 = getelementptr inbounds %struct.TopSizeBlk, ptr %20, i64 %22
  %24 = getelementptr inbounds %struct.TopSizeBlk, ptr %23, i32 0, i32 1
  %25 = load ptr, ptr %24, align 8
  call void @_ZN2os4freeEPv(ptr noundef %25)
  br label %26

26:                                               ; preds = %19, %11
  br label %27

27:                                               ; preds = %26
  %28 = load i32, ptr %3, align 4
  %29 = add i32 %28, 1
  store i32 %29, ptr %3, align 4
  br label %7, !llvm.loop !10

30:                                               ; preds = %7
  %31 = load ptr, ptr @_ZL12TopSizeArray, align 8
  %32 = icmp eq ptr %31, null
  br i1 %32, label %34, label %33

33:                                               ; preds = %30
  call void @_ZN8CHeapObjIL8MEMFLAGS4EEdaEPv(ptr noundef %31) #9
  br label %34

34:                                               ; preds = %33, %30
  store ptr null, ptr @_ZL12TopSizeArray, align 8
  store i32 0, ptr @_ZL19alloc_topSizeBlocks, align 4
  store i32 0, ptr @_ZL18used_topSizeBlocks, align 4
  br label %35

35:                                               ; preds = %34, %1
  ret void
}