; Function Attrs: mustprogress nounwind uwtable
define hidden void @_ZN13CodeHeapState20discard_TopSizeArrayEP12outputStream(ptr nocapture noundef readnone %0) local_unnamed_addr #1 align 2 {
  %2 = load ptr, ptr @_ZL12TopSizeArray, align 8
  %.not = icmp eq ptr %2, null
  br i1 %.not, label %17, label %.preheader

.preheader:                                       ; preds = %1
  %3 = load i32, ptr @_ZL19alloc_topSizeBlocks, align 4
  %.not8 = icmp eq i32 %3, 0
  br i1 %.not8, label %._crit_edge.thread, label %.lr.ph

.lr.ph:                                           ; preds = %.preheader, %9
  %4 = phi i32 [ %10, %9 ], [ %3, %.preheader ]
  %5 = phi ptr [ %11, %9 ], [ %2, %.preheader ]
  %indvars.iv = phi i64 [ %indvars.iv.next, %9 ], [ 0, %.preheader ]
  %6 = getelementptr inbounds %struct.TopSizeBlk, ptr %5, i64 %indvars.iv, i32 1
  %7 = load ptr, ptr %6, align 8
  %.not6 = icmp eq ptr %7, null
  br i1 %.not6, label %9, label %8

8:                                                ; preds = %.lr.ph
  tail call void @_ZN2os4freeEPv(ptr noundef nonnull %7) #12
  %.pre = load ptr, ptr @_ZL12TopSizeArray, align 8
  %.pre11 = load i32, ptr @_ZL19alloc_topSizeBlocks, align 4
  br label %9

9:                                                ; preds = %.lr.ph, %8
  %10 = phi i32 [ %4, %.lr.ph ], [ %.pre11, %8 ]
  %11 = phi ptr [ %5, %.lr.ph ], [ %.pre, %8 ]
  %indvars.iv.next = add nuw nsw i64 %indvars.iv, 1
  %12 = zext i32 %10 to i64
  %13 = icmp ult i64 %indvars.iv.next, %12
  br i1 %13, label %.lr.ph, label %._crit_edge, !llvm.loop !10

._crit_edge:                                      ; preds = %9
  %14 = icmp eq ptr %11, null
  br i1 %14, label %16, label %._crit_edge.thread

._crit_edge.thread:                               ; preds = %.preheader, %._crit_edge
  %15 = phi ptr [ %11, %._crit_edge ], [ %2, %.preheader ]
  tail call void @_Z8FreeHeapPv(ptr noundef nonnull %15) #12
  br label %16

16:                                               ; preds = %._crit_edge.thread, %._crit_edge
  store ptr null, ptr @_ZL12TopSizeArray, align 8
  store i32 0, ptr @_ZL19alloc_topSizeBlocks, align 4
  store i32 0, ptr @_ZL18used_topSizeBlocks, align 4
  br label %17

17:                                               ; preds = %16, %1
  ret void
}